ccopy_reg
_reconstructor
p1
(cposting
Posting
p2
c__builtin__
object
p3
NtRp4
(dp5
S'tf'
p6
(dp7
S'5'
F0.073212018082648767
sS'4'
F0.082496570180511389
ssS'positions'
p8
(dp9
S'5'
(lp10
I5
aI8
asS'4'
(lp11
I3
aI6
assS'docIds'
p12
(lp13
S'4'
aS'5'
asb.ccopy_reg
_reconstructor
p1
(cposting
Posting
p2
c__builtin__
object
p3
NtRp4
(dp5
S'tf'
p6
(dp7
S'5'
F0.23721794231648144
ssS'positions'
p8
(dp9
S'5'
(lp10
I1
assS'docIds'
p11
(lp12
S'5'
asb.ccopy_reg
_reconstructor
p1
(cposting
Posting
p2
c__builtin__
object
p3
NtRp4
(dp5
S'tf'
p6
(dp7
S'5'
F0.23721794231648144
sS'4'
F0.25181076462362761
ssS'positions'
p8
(dp9
S'5'
(lp10
I6
asS'4'
(lp11
I4
assS'docIds'
p12
(lp13
S'4'
aS'5'
asb.ccopy_reg
_reconstructor
p1
(cposting
Posting
p2
c__builtin__
object
p3
NtRp4
(dp5
S'tf'
p6
(dp7
S'5'
F0.23721794231648144
sS'4'
F0.25181076462362761
ssS'positions'
p8
(dp9
S'5'
(lp10
I9
asS'4'
(lp11
I7
assS'docIds'
p12
(lp13
S'4'
aS'5'
asb.ccopy_reg
_reconstructor
p1
(cposting
Posting
p2
c__builtin__
object
p3
NtRp4
(dp5
S'tf'
p6
(dp7
S'3'
F0.5
ssS'positions'
p8
(dp9
S'3'
(lp10
I0
assS'docIds'
p11
(lp12
S'3'
asb.ccopy_reg
_reconstructor
p1
(cposting
Posting
p2
c__builtin__
object
p3
NtRp4
(dp5
S'tf'
p6
(dp7
S'1'
F0.3957376504333921
sS'2'
F0.70710678118654746
sS'5'
F0.23721794231648144
sS'4'
F0.25181076462362761
ssS'positions'
p8
(dp9
S'1'
(lp10
I1
asS'2'
(lp11
I1
asS'5'
(lp12
I2
asS'4'
(lp13
I1
assS'docIds'
p14
(lp15
S'1'
aS'2'
aS'4'
aS'5'
asb.ccopy_reg
_reconstructor
p1
(cposting
Posting
p2
c__builtin__
object
p3
NtRp4
(dp5
S'tf'
p6
(dp7
S'5'
F0.23721794231648144
ssS'positions'
p8
(dp9
S'5'
(lp10
I4
assS'docIds'
p11
(lp12
S'5'
asb.ccopy_reg
_reconstructor
p1
(cposting
Posting
p2
c__builtin__
object
p3
NtRp4
(dp5
S'tf'
p6
(dp7
S'1'
F0.3957376504333921
sS'5'
F0.073212018082648767
sS'4'
F0.082496570180511389
ssS'positions'
p8
(dp9
S'1'
(lp10
I2
asS'5'
(lp11
I3
aI11
asS'4'
(lp12
I2
aI9
assS'docIds'
p13
(lp14
S'1'
aS'4'
aS'5'
asb.ccopy_reg
_reconstructor
p1
(cposting
Posting
p2
c__builtin__
object
p3
NtRp4
(dp5
S'tf'
p6
(dp7
S'5'
F0.23721794231648144
sS'4'
F0.25181076462362761
ssS'positions'
p8
(dp9
S'5'
(lp10
I7
asS'4'
(lp11
I5
assS'docIds'
p12
(lp13
S'4'
aS'5'
asb.ccopy_reg
_reconstructor
p1
(cposting
Posting
p2
c__builtin__
object
p3
NtRp4
(dp5
S'tf'
p6
(dp7
S'5'
F0.23721794231648144
sS'4'
F0.25181076462362761
ssS'positions'
p8
(dp9
S'5'
(lp10
I12
asS'4'
(lp11
I10
assS'docIds'
p12
(lp13
S'4'
aS'5'
asb.ccopy_reg
_reconstructor
p1
(cposting
Posting
p2
c__builtin__
object
p3
NtRp4
(dp5
S'tf'
p6
(dp7
S'1'
F0.3957376504333921
sS'5'
F0.23721794231648144
sS'4'
F0.25181076462362761
ssS'positions'
p8
(dp9
S'1'
(lp10
I3
asS'5'
(lp11
I10
asS'4'
(lp12
I8
assS'docIds'
p13
(lp14
S'1'
aS'4'
aS'5'
asb.ccopy_reg
_reconstructor
p1
(cposting
Posting
p2
c__builtin__
object
p3
NtRp4
(dp5
S'tf'
p6
(dp7
S'3'
F0.5
ssS'positions'
p8
(dp9
S'3'
(lp10
I1
assS'docIds'
p11
(lp12
S'3'
asb.ccopy_reg
_reconstructor
p1
(cposting
Posting
p2
c__builtin__
object
p3
NtRp4
(dp5
S'tf'
p6
(dp7
S'1'
F0.20375208021925734
sS'2'
F0.70710678118654746
sS'5'
F0.23721794231648144
sS'4'
F0.25181076462362761
ssS'positions'
p8
(dp9
S'1'
(lp10
I0
aI4
asS'2'
(lp11
I0
asS'5'
(lp12
I0
asS'4'
(lp13
I0
assS'docIds'
p14
(lp15
S'1'
aS'2'
aS'4'
aS'5'
asb.ccopy_reg
_reconstructor
p1
(cposting
Posting
p2
c__builtin__
object
p3
NtRp4
(dp5
S'tf'
p6
(dp7
S'3'
F0.5
sS'5'
F0.23721794231648144
sS'4'
F0.25181076462362761
ssS'positions'
p8
(dp9
S'3'
(lp10
I3
asS'5'
(lp11
I14
asS'4'
(lp12
I12
assS'docIds'
p13
(lp14
S'3'
aS'4'
aS'5'
asb.ccopy_reg
_reconstructor
p1
(cposting
Posting
p2
c__builtin__
object
p3
NtRp4
(dp5
S'tf'
p6
(dp7
S'3'
F0.5
sS'5'
F0.23721794231648144
sS'4'
F0.25181076462362761
ssS'positions'
p8
(dp9
S'3'
(lp10
I2
asS'5'
(lp11
I13
asS'4'
(lp12
I11
assS'docIds'
p13
(lp14
S'3'
aS'4'
aS'5'
asb.