ccopy_reg
_reconstructor
p1
(cposting
Posting
p2
c__builtin__
object
p3
NtRp4
(dp5
S'tf'
p6
(dp7
S'3'
F0.57735026918962584
ssS'positions'
p8
(dp9
S'3'
(lp10
I0
assb.ccopy_reg
_reconstructor
p1
(cposting
Posting
p2
c__builtin__
object
p3
NtRp4
(dp5
S'tf'
p6
(dp7
S'1'
F0.3957376504333921
sS'2'
F0.70710678118654746
ssS'positions'
p8
(dp9
S'1'
(lp10
I1
asS'2'
(lp11
I1
assb.ccopy_reg
_reconstructor
p1
(cposting
Posting
p2
c__builtin__
object
p3
NtRp4
(dp5
S'tf'
p6
(dp7
S'1'
F0.3957376504333921
ssS'positions'
p8
(dp9
S'1'
(lp10
I2
assb.ccopy_reg
_reconstructor
p1
(cposting
Posting
p2
c__builtin__
object
p3
NtRp4
(dp5
S'tf'
p6
(dp7
S'1'
F0.3957376504333921
ssS'positions'
p8
(dp9
S'1'
(lp10
I3
assb.ccopy_reg
_reconstructor
p1
(cposting
Posting
p2
c__builtin__
object
p3
NtRp4
(dp5
S'tf'
p6
(dp7
S'3'
F0.57735026918962584
ssS'positions'
p8
(dp9
S'3'
(lp10
I1
assb.ccopy_reg
_reconstructor
p1
(cposting
Posting
p2
c__builtin__
object
p3
NtRp4
(dp5
S'tf'
p6
(dp7
S'1'
F0.20375208021925734
sS'2'
F0.70710678118654746
ssS'positions'
p8
(dp9
S'1'
(lp10
I0
aI4
asS'2'
(lp11
I0
assb.ccopy_reg
_reconstructor
p1
(cposting
Posting
p2
c__builtin__
object
p3
NtRp4
(dp5
S'tf'
p6
(dp7
S'3'
F0.57735026918962584
ssS'positions'
p8
(dp9
S'3'
(lp10
I2
assb.